; Function Attrs: mustprogress nofree norecurse nosync nounwind willreturn memory(read, inaccessiblemem: none) uwtable
define hidden noundef zeroext i1 @_ZN17algebraic_numbers7manager6is_negERKNS_4anumE(ptr noundef nonnull readonly align 8 captures(none) dereferenceable(17) %0, ptr noundef nonnull readonly align 8 captures(none) dereferenceable(8) %1) local_unnamed_addr #8 align 2 {
  %3 = load ptr, ptr %1, align 8, !tbaa !66
  %4 = ptrtoint ptr %3 to i64
  %5 = and i64 %4, 7
  %6 = icmp eq i64 %5, 0
  br i1 %6, label %7, label %13

7:                                                ; preds = %2
  %8 = load ptr, ptr %0, align 8, !tbaa !12
  %9 = icmp eq ptr %3, null
  %10 = getelementptr inbounds nuw i8, ptr %8, i64 640
  %.0.i.i = select i1 %9, ptr %10, ptr %3
  %11 = load i32, ptr %.0.i.i, align 8, !tbaa !22
  %12 = icmp slt i32 %11, 0
  br label %_ZN17algebraic_numbers7manager3imp6is_negERKNS_4anumE.exit

13:                                               ; preds = %2
  %14 = and i64 %4, -8
  %15 = inttoptr i64 %14 to ptr
  %16 = getelementptr inbounds nuw i8, ptr %15, i64 40
  %17 = load i32, ptr %16, align 8, !tbaa !22
  %18 = icmp slt i32 %17, 1
  br label %_ZN17algebraic_numbers7manager3imp6is_negERKNS_4anumE.exit

_ZN17algebraic_numbers7manager3imp6is_negERKNS_4anumE.exit: ; preds = %7, %13
  %.0.i = phi i1 [ %12, %7 ], [ %18, %13 ]
  ret i1 %.0.i
}